; Function Attrs: nounwind uwtable
define internal void @use_SNI_at_ssl(ptr noundef %0) #0 {
  %2 = tail call i32 @wolfSSL_UseSNI(ptr noundef %0, i8 noundef zeroext 0, ptr noundef nonnull @.str.2019, i16 noundef zeroext 15) #27
  %3 = icmp eq i32 %2, 1
  br i1 %3, label %16, label %4

4:                                                ; preds = %1
  %5 = tail call i32 (ptr, ...) @printf(ptr noundef nonnull dereferenceable(1) @.str, ptr noundef nonnull @.str.1, i32 noundef 11424)
  %6 = load ptr, ptr @stdout, align 8, !tbaa !22
  %7 = tail call i64 @fwrite(ptr nonnull @.str.2, i64 15, i64 1, ptr %6)
  %8 = tail call i32 (ptr, ...) @printf(ptr noundef nonnull dereferenceable(1) @.str.3, ptr noundef nonnull @.str.993, ptr noundef nonnull @.str.2032)
  %9 = load ptr, ptr @stdout, align 8, !tbaa !22
  %10 = tail call i64 @fwrite(ptr nonnull @.str.6, i64 15, i64 1, ptr %9)
  %11 = tail call i32 (ptr, ...) @printf(ptr noundef nonnull dereferenceable(1) @.str.7, i32 noundef 1, i32 noundef %2)
  %12 = load ptr, ptr @stdout, align 8, !tbaa !22
  %13 = tail call i64 @fwrite(ptr nonnull @.str.8, i64 2, i64 1, ptr %12)
  %14 = load ptr, ptr @stdout, align 8, !tbaa !22
  %15 = tail call i32 @fflush(ptr noundef %14)
  tail call void @abort() #31
  unreachable

16:                                               ; preds = %1
  ret void
}